; Function Attrs: nounwind uwtable
define internal ptr @classmethoddescr_call(ptr noundef readonly captures(none) %0, ptr noundef %1, ptr noundef %2) #0 {
  %4 = getelementptr i8, ptr %1, i64 16
  %.val17 = load i64, ptr %4, align 8, !tbaa !36
  %5 = icmp slt i64 %.val17, 1
  br i1 %5, label %6, label %18

6:                                                ; preds = %3
  %7 = load ptr, ptr @PyExc_TypeError, align 8, !tbaa !30
  %8 = getelementptr i8, ptr %0, i64 24
  %.val = load ptr, ptr %8, align 8, !tbaa !17
  %.not.i18 = icmp eq ptr %.val, null
  br i1 %.not.i18, label %descr_name.exit, label %9

9:                                                ; preds = %6
  %10 = getelementptr i8, ptr %.val, i64 8
  %.val.i = load ptr, ptr %10, align 8, !tbaa !19
  %11 = getelementptr i8, ptr %.val.i, i64 168
  %.val6.i = load i64, ptr %11, align 8, !tbaa !20
  %12 = and i64 %.val6.i, 268435456
  %.not5.i = icmp eq i64 %12, 0
  %spec.select.i = select i1 %.not5.i, ptr null, ptr %.val
  br label %descr_name.exit

descr_name.exit:                                  ; preds = %6, %9
  %.0.i = phi ptr [ null, %6 ], [ %spec.select.i, %9 ]
  %13 = getelementptr inbounds nuw i8, ptr %0, i64 16
  %14 = load ptr, ptr %13, align 8, !tbaa !10
  %15 = getelementptr inbounds nuw i8, ptr %14, i64 24
  %16 = load ptr, ptr %15, align 8, !tbaa !29
  %17 = tail call ptr (ptr, ptr, ...) @PyErr_Format(ptr noundef %7, ptr noundef nonnull @.str.27, ptr noundef %.0.i, ptr noundef nonnull @.str.12, ptr noundef %16) #9
  br label %Py_DECREF.exit

18:                                               ; preds = %3
  %19 = getelementptr inbounds nuw i8, ptr %1, i64 24
  %20 = load ptr, ptr %19, align 8, !tbaa !30
  %21 = tail call ptr @classmethod_get(ptr noundef %0, ptr noundef null, ptr noundef %20)
  %22 = icmp eq ptr %21, null
  br i1 %22, label %Py_DECREF.exit, label %23

23:                                               ; preds = %18
  %24 = getelementptr i8, ptr %1, i64 32
  %25 = add nsw i64 %.val17, -1
  %26 = tail call ptr @PyObject_VectorcallDict(ptr noundef nonnull %21, ptr noundef %24, i64 noundef %25, ptr noundef %2) #9
  %27 = load i32, ptr %21, align 8, !tbaa !16
  %.not.i = icmp sgt i32 %27, -1
  br i1 %.not.i, label %28, label %Py_DECREF.exit

28:                                               ; preds = %23
  %29 = add nsw i32 %27, -1
  store i32 %29, ptr %21, align 8, !tbaa !16
  %30 = icmp eq i32 %29, 0
  br i1 %30, label %31, label %Py_DECREF.exit

31:                                               ; preds = %28
  tail call void @_Py_Dealloc(ptr noundef nonnull %21) #9
  br label %Py_DECREF.exit

Py_DECREF.exit:                                   ; preds = %31, %28, %23, %18, %descr_name.exit
  %.0 = phi ptr [ null, %descr_name.exit ], [ null, %18 ], [ %26, %23 ], [ %26, %28 ], [ %26, %31 ]
  ret ptr %.0
}